; Function Attrs: mustprogress nofree norecurse nosync nounwind willreturn memory(argmem: read) uwtable
define hidden noundef zeroext i1 @_ZNK4cvc58internal6theory24InferenceManagerBuffered10hasPendingEv(ptr noundef nonnull readonly align 8 captures(none) dereferenceable(337) %0) local_unnamed_addr #4 align 2 {
  %2 = getelementptr inbounds nuw i8, ptr %0, i64 264
  %3 = load ptr, ptr %2, align 8, !tbaa !63
  %4 = getelementptr inbounds nuw i8, ptr %0, i64 272
  %5 = load ptr, ptr %4, align 8, !tbaa !63
  %6 = icmp ne ptr %3, %5
  %7 = getelementptr inbounds nuw i8, ptr %0, i64 240
  %8 = load ptr, ptr %7, align 8
  %9 = getelementptr inbounds nuw i8, ptr %0, i64 248
  %10 = load ptr, ptr %9, align 8
  %11 = icmp ne ptr %8, %10
  %12 = select i1 %6, i1 true, i1 %11
  ret i1 %12
}